; Function Attrs: nounwind uwtable
define dso_local noundef ptr @dsa_attach_in_place(ptr noundef %0, ptr noundef %1) local_unnamed_addr #0 {
  %3 = tail call fastcc ptr @attach_internal(ptr noundef %0, ptr noundef null)
  %.not = icmp eq ptr %1, null
  br i1 %.not, label %6, label %4

4:                                                ; preds = %2
  %5 = ptrtoint ptr %0 to i64
  tail call void @on_dsm_detach(ptr noundef nonnull %1, ptr noundef nonnull @dsa_on_dsm_detach_release_in_place, i64 noundef %5) #11
  br label %6

6:                                                ; preds = %4, %2
  ret ptr %3
}